target datalayout = "e-m:e-p270:32:32-p271:32:32-p272:64:64-i64:64-i128:128-f80:128-n8:16:32:64-S128"
target triple = "x86_64-pc-linux-gnu"

%struct.slurm_conf_t = type { i64, ptr, i16, ptr, ptr, ptr, ptr, ptr, i16, ptr, ptr, ptr, ptr, ptr, ptr, ptr, i16, ptr, ptr, ptr, ptr, i16, ptr, ptr, ptr, i64, ptr, ptr, ptr, ptr, i16, ptr, ptr, i16, i32, ptr, i32, ptr, i32, i32, ptr, ptr, i64, i64, ptr, i16, i16, ptr, i32, i32, ptr, i32, ptr, i32, i16, i16, i16, ptr, i16, i16, ptr, ptr, i32, i16, i16, ptr, i32, i16, ptr, ptr, ptr, ptr, i16, ptr, ptr, ptr, ptr, i32, ptr, ptr, ptr, ptr, i16, i16, ptr, i32, i32, i32, i16, i16, ptr, ptr, i16, ptr, ptr, i32, i32, i32, i32, i32, i64, i32, i32, i16, ptr, ptr, i32, ptr, ptr, ptr, i16, i32, ptr, ptr, i16, ptr, ptr, i32, i16, ptr, ptr, ptr, ptr, i32, i32, i16, i16, i32, ptr, i16, ptr, i32, i32, i32, i32, i32, i32, ptr, i16, ptr, ptr, i32, i16, ptr, i32, i16, i16, ptr, ptr, ptr, i16, ptr, ptr, ptr, ptr, i16, i16, ptr, i16, ptr, i16, ptr, i16, ptr, i16, ptr, ptr, ptr, ptr, i16, ptr, ptr, ptr, i32, ptr, i32, ptr, ptr, i16, ptr, ptr, i32, i16, ptr, ptr, i16, i16, ptr, i16, ptr, ptr, ptr, i32, ptr, i16, i16, ptr, ptr, ptr, ptr, ptr, ptr, ptr, ptr, i16, i32, i16, ptr, ptr, ptr, ptr, i32, ptr, ptr, ptr, i16, ptr, ptr, ptr, i16, ptr, i16, ptr, i16, i16, ptr }
%struct.gpu_status_t = type { i32, i64, i64, %struct.acct_gather_energy }
%struct.acct_gather_energy = type { i32, i64, i64, i32, i64, i64, i64 }
%struct.acct_gather_profile_dataset_t = type { ptr, i32 }

@plugin_type = dso_local constant [23 x i8] c"acct_gather_energy/gpu\00", align 16
@gpus = internal global ptr null, align 8
@gpus_len = internal global i16 0, align 2
@slurm_conf = external global %struct.slurm_conf_t, align 8
@dataset_id = internal global i32 -1, align 4
@.str.27 = private unnamed_addr constant [11 x i8] c"GPU%dPower\00", align 1
@.str.28 = private unnamed_addr constant [7 x i8] c"Energy\00", align 1
@.str.29 = private unnamed_addr constant [50 x i8] c"%s: %s: ENERGY: Energy: dataset created (id = %d)\00", align 1
@__func__._send_profile = private unnamed_addr constant [14 x i8] c"_send_profile\00", align 1
@.str.30 = private unnamed_addr constant [37 x i8] c"Energy: Failed to create the dataset\00", align 1
@.str.31 = private unnamed_addr constant [39 x i8] c"%s: %s: PROFILE-Energy: GPU%dPower=%lu\00", align 1
@_running_profile.run = internal global i8 0, align 1
@_running_profile.profile_opt = internal global i32 0, align 4

; Function Attrs: nounwind uwtable
define internal i32 @_running_profile() #0 {
  %1 = load i32, ptr @_running_profile.profile_opt, align 4
  %2 = icmp eq i32 %1, 0
  br i1 %2, label %3, label %11

3:                                                ; preds = %0
  %4 = call i32 @acct_gather_profile_g_get(i32 noundef 2, ptr noundef @_running_profile.profile_opt)
  %5 = load i32, ptr @_running_profile.profile_opt, align 4
  %6 = zext i32 %5 to i64
  %7 = and i64 %6, 2
  %8 = icmp ne i64 %7, 0
  br i1 %8, label %9, label %10

9:                                                ; preds = %3
  store i8 1, ptr @_running_profile.run, align 1
  br label %10

10:                                               ; preds = %9, %3
  br label %11

11:                                               ; preds = %10, %0
  %12 = load i8, ptr @_running_profile.run, align 1, !range !13, !noundef !14
  %13 = trunc i8 %12 to i1
  %14 = zext i1 %13 to i32
  ret i32 %14
}

; Function Attrs: nounwind uwtable
define internal i32 @_send_profile() #0 {
  %1 = alloca i32, align 4
  %2 = alloca i16, align 2
  %3 = alloca ptr, align 8
  %4 = alloca i64, align 8
  %5 = alloca i64, align 8
  %6 = alloca i32, align 4
  %7 = alloca ptr, align 8
  %8 = alloca i64, align 8
  call void @llvm.lifetime.start.p0(i64 2, ptr %2) #9
  %9 = load i16, ptr @gpus_len, align 2
  %10 = zext i16 %9 to i64
  %11 = call ptr @llvm.stacksave.p0()
  store ptr %11, ptr %3, align 8
  %12 = alloca i64, i64 %10, align 16
  store i64 %10, ptr %4, align 8
  call void @llvm.lifetime.start.p0(i64 8, ptr %5) #9
  %13 = load ptr, ptr @gpus, align 8
  %14 = load i16, ptr @gpus_len, align 2
  %15 = zext i16 %14 to i32
  %16 = sub nsw i32 %15, 1
  %17 = sext i32 %16 to i64
  %18 = getelementptr inbounds %struct.gpu_status_t, ptr %13, i64 %17
  %19 = getelementptr inbounds nuw %struct.gpu_status_t, ptr %18, i32 0, i32 1
  %20 = load i64, ptr %19, align 8
  store i64 %20, ptr %5, align 8
  %21 = call i32 @_running_profile()
  %22 = icmp ne i32 %21, 0
  br i1 %22, label %24, label %23

23:                                               ; preds = %0
  store i32 0, ptr %1, align 4
  store i32 1, ptr %6, align 4
  br label %171

24:                                               ; preds = %0
  %25 = load i32, ptr @dataset_id, align 4
  %26 = icmp slt i32 %25, 0
  br i1 %26, label %27, label %105

27:                                               ; preds = %24
  %28 = load i16, ptr @gpus_len, align 2
  %29 = zext i16 %28 to i32
  %30 = add nsw i32 %29, 1
  %31 = zext i32 %30 to i64
  %32 = call ptr @llvm.stacksave.p0()
  store ptr %32, ptr %7, align 8
  %33 = alloca %struct.acct_gather_profile_dataset_t, i64 %31, align 16
  store i64 %31, ptr %8, align 8
  store i16 0, ptr %2, align 2
  br label %34

34:                                               ; preds = %52, %27
  %35 = load i16, ptr %2, align 2
  %36 = zext i16 %35 to i32
  %37 = load i16, ptr @gpus_len, align 2
  %38 = zext i16 %37 to i32
  %39 = icmp slt i32 %36, %38
  br i1 %39, label %40, label %55

40:                                               ; preds = %34
  %41 = load i16, ptr %2, align 2
  %42 = zext i16 %41 to i32
  %43 = call ptr (ptr, ...) @slurm_xstrdup_printf(ptr noundef @.str.27, i32 noundef %42)
  %44 = load i16, ptr %2, align 2
  %45 = zext i16 %44 to i64
  %46 = getelementptr inbounds nuw %struct.acct_gather_profile_dataset_t, ptr %33, i64 %45
  %47 = getelementptr inbounds nuw %struct.acct_gather_profile_dataset_t, ptr %46, i32 0, i32 0
  store ptr %43, ptr %47, align 16
  %48 = load i16, ptr %2, align 2
  %49 = zext i16 %48 to i64
  %50 = getelementptr inbounds nuw %struct.acct_gather_profile_dataset_t, ptr %33, i64 %49
  %51 = getelementptr inbounds nuw %struct.acct_gather_profile_dataset_t, ptr %50, i32 0, i32 1
  store i32 1, ptr %51, align 8
  br label %52

52:                                               ; preds = %40
  %53 = load i16, ptr %2, align 2
  %54 = add i16 %53, 1
  store i16 %54, ptr %2, align 2
  br label %34, !llvm.loop !17

55:                                               ; preds = %34
  %56 = load i16, ptr %2, align 2
  %57 = zext i16 %56 to i64
  %58 = getelementptr inbounds nuw %struct.acct_gather_profile_dataset_t, ptr %33, i64 %57
  %59 = getelementptr inbounds nuw %struct.acct_gather_profile_dataset_t, ptr %58, i32 0, i32 0
  store ptr null, ptr %59, align 16
  %60 = load i16, ptr %2, align 2
  %61 = zext i16 %60 to i64
  %62 = getelementptr inbounds nuw %struct.acct_gather_profile_dataset_t, ptr %33, i64 %61
  %63 = getelementptr inbounds nuw %struct.acct_gather_profile_dataset_t, ptr %62, i32 0, i32 1
  store i32 0, ptr %63, align 8
  %64 = call i32 @acct_gather_profile_g_create_dataset(ptr noundef @.str.28, i64 noundef -1, ptr noundef %33)
  store i32 %64, ptr @dataset_id, align 4
  store i16 0, ptr %2, align 2
  br label %65

65:                                               ; preds = %76, %55
  %66 = load i16, ptr %2, align 2
  %67 = zext i16 %66 to i32
  %68 = load i16, ptr @gpus_len, align 2
  %69 = zext i16 %68 to i32
  %70 = icmp slt i32 %67, %69
  br i1 %70, label %71, label %79

71:                                               ; preds = %65
  %72 = load i16, ptr %2, align 2
  %73 = zext i16 %72 to i64
  %74 = getelementptr inbounds nuw %struct.acct_gather_profile_dataset_t, ptr %33, i64 %73
  %75 = getelementptr inbounds nuw %struct.acct_gather_profile_dataset_t, ptr %74, i32 0, i32 0
  call void @slurm_xfree(ptr noundef %75)
  br label %76

76:                                               ; preds = %71
  %77 = load i16, ptr %2, align 2
  %78 = add i16 %77, 1
  store i16 %78, ptr %2, align 2
  br label %65, !llvm.loop !18

79:                                               ; preds = %65
  br label %80

80:                                               ; preds = %79
  %81 = load i64, ptr getelementptr inbounds nuw (%struct.slurm_conf_t, ptr @slurm_conf, i32 0, i32 42), align 8
  %82 = and i64 %81, 262144
  %83 = icmp ne i64 %82, 0
  br i1 %83, label %84, label %93

84:                                               ; preds = %80
  br label %85

85:                                               ; preds = %84
  %86 = call i32 @slurm_get_log_level()
  %87 = icmp sge i32 %86, 4
  br i1 %87, label %88, label %90

88:                                               ; preds = %85
  %89 = load i32, ptr @dataset_id, align 4
  call void (i32, ptr, ...) @slurm_log_var(i32 noundef 4, ptr noundef @.str.29, ptr noundef @plugin_type, ptr noundef @__func__._send_profile, i32 noundef %89)
  br label %90

90:                                               ; preds = %88, %85
  br label %91

91:                                               ; preds = %90
  br label %92

92:                                               ; preds = %91
  br label %93

93:                                               ; preds = %92, %80
  br label %94

94:                                               ; preds = %93
  br label %95

95:                                               ; preds = %94
  %96 = load i32, ptr @dataset_id, align 4
  %97 = icmp eq i32 %96, -1
  br i1 %97, label %98, label %100

98:                                               ; preds = %95
  %99 = call i32 (ptr, ...) @slurm_error(ptr noundef @.str.30)
  store i32 -1, ptr %1, align 4
  store i32 1, ptr %6, align 4
  br label %101

100:                                              ; preds = %95
  store i32 0, ptr %6, align 4
  br label %101

101:                                              ; preds = %100, %98
  %102 = load ptr, ptr %7, align 8
  call void @llvm.stackrestore.p0(ptr %102)
  %103 = load i32, ptr %6, align 4
  switch i32 %103, label %171 [
    i32 0, label %104
  ]

104:                                              ; preds = %101
  br label %105

105:                                              ; preds = %104, %24
  %106 = mul nuw i64 8, %10
  call void @llvm.memset.p0.i64(ptr align 16 %12, i8 0, i64 %106, i1 false)
  store i16 0, ptr %2, align 2
  br label %107

107:                                              ; preds = %132, %105
  %108 = load i16, ptr %2, align 2
  %109 = zext i16 %108 to i32
  %110 = load i16, ptr @gpus_len, align 2
  %111 = zext i16 %110 to i32
  %112 = icmp slt i32 %109, %111
  br i1 %112, label %113, label %135

113:                                              ; preds = %107
  %114 = load ptr, ptr @gpus, align 8
  %115 = load i16, ptr %2, align 2
  %116 = zext i16 %115 to i64
  %117 = getelementptr inbounds nuw %struct.gpu_status_t, ptr %114, i64 %116
  %118 = getelementptr inbounds nuw %struct.gpu_status_t, ptr %117, i32 0, i32 3
  %119 = getelementptr inbounds nuw %struct.acct_gather_energy, ptr %118, i32 0, i32 3
  %120 = load i32, ptr %119, align 8
  %121 = zext i32 %120 to i64
  %122 = load i16, ptr %2, align 2
  %123 = zext i16 %122 to i64
  %124 = getelementptr inbounds nuw i64, ptr %12, i64 %123
  store i64 %121, ptr %124, align 8
  %125 = load ptr, ptr @gpus, align 8
  %126 = load i16, ptr %2, align 2
  %127 = zext i16 %126 to i64
  %128 = getelementptr inbounds nuw %struct.gpu_status_t, ptr %125, i64 %127
  %129 = getelementptr inbounds nuw %struct.gpu_status_t, ptr %128, i32 0, i32 3
  %130 = getelementptr inbounds nuw %struct.acct_gather_energy, ptr %129, i32 0, i32 5
  %131 = load i64, ptr %130, align 8
  store i64 %131, ptr %5, align 8
  br label %132

132:                                              ; preds = %113
  %133 = load i16, ptr %2, align 2
  %134 = add i16 %133, 1
  store i16 %134, ptr %2, align 2
  br label %107, !llvm.loop !19

135:                                              ; preds = %107
  %136 = load i64, ptr getelementptr inbounds nuw (%struct.slurm_conf_t, ptr @slurm_conf, i32 0, i32 42), align 8
  %137 = and i64 %136, 2097152
  %138 = icmp ne i64 %137, 0
  br i1 %138, label %139, label %167

139:                                              ; preds = %135
  store i16 0, ptr %2, align 2
  br label %140

140:                                              ; preds = %163, %139
  %141 = load i16, ptr %2, align 2
  %142 = zext i16 %141 to i32
  %143 = load i16, ptr @gpus_len, align 2
  %144 = zext i16 %143 to i32
  %145 = icmp slt i32 %142, %144
  br i1 %145, label %146, label %166

146:                                              ; preds = %140
  br label %147

147:                                              ; preds = %146
  br label %148

148:                                              ; preds = %147
  %149 = call i32 @slurm_get_log_level()
  %150 = icmp sge i32 %149, 3
  br i1 %150, label %151, label %158

151:                                              ; preds = %148
  %152 = load i16, ptr %2, align 2
  %153 = zext i16 %152 to i32
  %154 = load i16, ptr %2, align 2
  %155 = zext i16 %154 to i64
  %156 = getelementptr inbounds nuw i64, ptr %12, i64 %155
  %157 = load i64, ptr %156, align 8
  call void (i32, ptr, ...) @slurm_log_var(i32 noundef 3, ptr noundef @.str.31, ptr noundef @plugin_type, ptr noundef @__func__._send_profile, i32 noundef %153, i64 noundef %157)
  br label %158

158:                                              ; preds = %151, %148
  br label %159

159:                                              ; preds = %158
  br label %160

160:                                              ; preds = %159
  br label %161

161:                                              ; preds = %160
  br label %162

162:                                              ; preds = %161
  br label %163

163:                                              ; preds = %162
  %164 = load i16, ptr %2, align 2
  %165 = add i16 %164, 1
  store i16 %165, ptr %2, align 2
  br label %140, !llvm.loop !20

166:                                              ; preds = %140
  br label %167

167:                                              ; preds = %166, %135
  %168 = load i32, ptr @dataset_id, align 4
  %169 = load i64, ptr %5, align 8
  %170 = call i32 @acct_gather_profile_g_add_sample_data(i32 noundef %168, ptr noundef %12, i64 noundef %169)
  store i32 %170, ptr %1, align 4
  store i32 1, ptr %6, align 4
  br label %171

171:                                              ; preds = %167, %101, %23
  call void @llvm.lifetime.end.p0(i64 8, ptr %5) #9
  %172 = load ptr, ptr %3, align 8
  call void @llvm.stackrestore.p0(ptr %172)
  call void @llvm.lifetime.end.p0(i64 2, ptr %2) #9
  %173 = load i32, ptr %1, align 4
  ret i32 %173
}