; Function Attrs: nounwind uwtable
define internal fastcc void @_send_profile() unnamed_addr #1 {
  %1 = load i16, ptr @gpus_len, align 2
  %2 = zext i16 %1 to i64
  %3 = alloca i64, i64 %2, align 16
  %4 = load ptr, ptr @gpus, align 8
  %5 = getelementptr %struct.gpu_status_t, ptr %4, i64 %2
  %6 = getelementptr i8, ptr %5, i64 -72
  %7 = load i64, ptr %6, align 8
  %8 = load i32, ptr @_running_profile.profile_opt, align 4
  %9 = icmp eq i32 %8, 0
  br i1 %9, label %10, label %_running_profile.exit

10:                                               ; preds = %0
  %11 = tail call i32 @acct_gather_profile_g_get(i32 noundef 2, ptr noundef nonnull @_running_profile.profile_opt) #11
  %12 = load i32, ptr @_running_profile.profile_opt, align 4
  %13 = and i32 %12, 2
  %.not.i = icmp eq i32 %13, 0
  br i1 %.not.i, label %_running_profile.exit, label %_running_profile.exit.thread

_running_profile.exit.thread:                     ; preds = %10
  store i1 true, ptr @_running_profile.run, align 1
  br label %14

_running_profile.exit:                            ; preds = %0, %10
  %.b1.i.pr = load i1, ptr @_running_profile.run, align 1
  br i1 %.b1.i.pr, label %14, label %77

14:                                               ; preds = %_running_profile.exit.thread, %_running_profile.exit
  %15 = load i32, ptr @dataset_id, align 4
  %16 = icmp slt i32 %15, 0
  %.pre59 = load i16, ptr @gpus_len, align 2
  br i1 %16, label %17, label %49

17:                                               ; preds = %14
  %18 = zext i16 %.pre59 to i64
  %19 = add nuw nsw i64 %18, 1
  %20 = tail call ptr @llvm.stacksave.p0()
  %21 = alloca %struct.acct_gather_profile_dataset_t, i64 %19, align 16
  %22 = load i16, ptr @gpus_len, align 2
  %.not = icmp eq i16 %22, 0
  br i1 %.not, label %._crit_edge, label %.lr.ph

.lr.ph:                                           ; preds = %17, %.lr.ph
  %indvars.iv = phi i64 [ %indvars.iv.next, %.lr.ph ], [ 0, %17 ]
  %23 = trunc nuw i64 %indvars.iv to i32
  %24 = tail call ptr (ptr, ...) @slurm_xstrdup_printf(ptr noundef nonnull @.str.27, i32 noundef %23) #11
  %25 = getelementptr inbounds nuw %struct.acct_gather_profile_dataset_t, ptr %21, i64 %indvars.iv
  store ptr %24, ptr %25, align 16
  %26 = getelementptr inbounds nuw i8, ptr %25, i64 8
  store i32 1, ptr %26, align 8
  %indvars.iv.next = add nuw nsw i64 %indvars.iv, 1
  %27 = load i16, ptr @gpus_len, align 2
  %28 = zext i16 %27 to i64
  %29 = icmp samesign ult i64 %indvars.iv.next, %28
  br i1 %29, label %.lr.ph, label %._crit_edge, !llvm.loop !17

._crit_edge:                                      ; preds = %.lr.ph, %17
  %.023.lcssa = phi i64 [ 0, %17 ], [ %indvars.iv.next, %.lr.ph ]
  %30 = getelementptr inbounds nuw %struct.acct_gather_profile_dataset_t, ptr %21, i64 %.023.lcssa
  store ptr null, ptr %30, align 16
  %31 = getelementptr inbounds nuw i8, ptr %30, i64 8
  store i32 0, ptr %31, align 8
  %32 = call i32 @acct_gather_profile_g_create_dataset(ptr noundef nonnull @.str.28, i64 noundef -1, ptr noundef nonnull %21) #11
  store i32 %32, ptr @dataset_id, align 4
  %33 = load i16, ptr @gpus_len, align 2
  %.not47 = icmp eq i16 %33, 0
  br i1 %.not47, label %._crit_edge36, label %.lr.ph35

.lr.ph35:                                         ; preds = %._crit_edge, %.lr.ph35
  %indvars.iv51 = phi i64 [ %indvars.iv.next52, %.lr.ph35 ], [ 0, %._crit_edge ]
  %34 = getelementptr inbounds nuw %struct.acct_gather_profile_dataset_t, ptr %21, i64 %indvars.iv51
  call void @slurm_xfree(ptr noundef nonnull %34) #11
  %indvars.iv.next52 = add nuw nsw i64 %indvars.iv51, 1
  %35 = load i16, ptr @gpus_len, align 2
  %36 = zext i16 %35 to i64
  %37 = icmp samesign ult i64 %indvars.iv.next52, %36
  br i1 %37, label %.lr.ph35, label %._crit_edge36, !llvm.loop !18

._crit_edge36:                                    ; preds = %.lr.ph35, %._crit_edge
  %38 = load i64, ptr getelementptr inbounds nuw (i8, ptr @slurm_conf, i64 320), align 8
  %39 = and i64 %38, 262144
  %.not29 = icmp eq i64 %39, 0
  br i1 %.not29, label %45, label %40

40:                                               ; preds = %._crit_edge36
  %41 = call i32 @slurm_get_log_level() #11
  %42 = icmp sgt i32 %41, 3
  br i1 %42, label %43, label %45

43:                                               ; preds = %40
  %44 = load i32, ptr @dataset_id, align 4
  call void (i32, ptr, ...) @slurm_log_var(i32 noundef 4, ptr noundef nonnull @.str.29, ptr noundef nonnull @plugin_type, ptr noundef nonnull @__func__._send_profile, i32 noundef %44) #11
  br label %45

45:                                               ; preds = %40, %43, %._crit_edge36
  %46 = load i32, ptr @dataset_id, align 4
  %.not30 = icmp eq i32 %46, -1
  br i1 %.not30, label %47, label %.critedge

47:                                               ; preds = %45
  %48 = call i32 (ptr, ...) @slurm_error(ptr noundef nonnull @.str.30) #11
  call void @llvm.stackrestore.p0(ptr %20)
  br label %77

.critedge:                                        ; preds = %45
  call void @llvm.stackrestore.p0(ptr %20)
  %.pre = load i16, ptr @gpus_len, align 2
  br label %49

49:                                               ; preds = %.critedge, %14
  %50 = phi i32 [ %46, %.critedge ], [ %15, %14 ]
  %51 = phi i16 [ %.pre, %.critedge ], [ %.pre59, %14 ]
  %52 = shl nuw nsw i64 %2, 3
  call void @llvm.memset.p0.i64(ptr nonnull align 16 %3, i8 0, i64 %52, i1 false)
  %.not48 = icmp eq i16 %51, 0
  br i1 %.not48, label %.loopexit, label %.lr.ph39

.lr.ph39:                                         ; preds = %49
  %53 = load ptr, ptr @gpus, align 8
  %wide.trip.count = zext i16 %51 to i64
  br label %54

54:                                               ; preds = %.lr.ph39, %54
  %indvars.iv54 = phi i64 [ 0, %.lr.ph39 ], [ %indvars.iv.next55, %54 ]
  %55 = getelementptr inbounds nuw %struct.gpu_status_t, ptr %53, i64 %indvars.iv54, i32 3, i32 3
  %56 = load i32, ptr %55, align 8
  %57 = zext i32 %56 to i64
  %58 = getelementptr inbounds nuw i64, ptr %3, i64 %indvars.iv54
  store i64 %57, ptr %58, align 8
  %indvars.iv.next55 = add nuw nsw i64 %indvars.iv54, 1
  %exitcond.not = icmp eq i64 %indvars.iv.next55, %wide.trip.count
  br i1 %exitcond.not, label %59, label %54, !llvm.loop !19

59:                                               ; preds = %54
  %60 = getelementptr inbounds nuw %struct.gpu_status_t, ptr %53, i64 %indvars.iv54, i32 3, i32 5
  %61 = load i64, ptr %60, align 8
  %62 = load i64, ptr getelementptr inbounds nuw (i8, ptr @slurm_conf, i64 320), align 8
  %63 = and i64 %62, 2097152
  %.not31.not = icmp eq i64 %63, 0
  br i1 %.not31.not, label %.loopexit, label %.lr.ph45

.lr.ph45:                                         ; preds = %59, %70
  %indvars.iv57 = phi i64 [ %indvars.iv.next58, %70 ], [ 0, %59 ]
  %64 = phi i32 [ %71, %70 ], [ 0, %59 ]
  %65 = call i32 @slurm_get_log_level() #11
  %66 = icmp sgt i32 %65, 2
  br i1 %66, label %67, label %70

67:                                               ; preds = %.lr.ph45
  %68 = getelementptr inbounds nuw i64, ptr %3, i64 %indvars.iv57
  %69 = load i64, ptr %68, align 8
  call void (i32, ptr, ...) @slurm_log_var(i32 noundef 3, ptr noundef nonnull @.str.31, ptr noundef nonnull @plugin_type, ptr noundef nonnull @__func__._send_profile, i32 noundef %64, i64 noundef %69) #11
  br label %70

70:                                               ; preds = %.lr.ph45, %67
  %indvars.iv.next58 = add nuw nsw i64 %indvars.iv57, 1
  %71 = trunc nuw i64 %indvars.iv.next58 to i32
  %72 = load i16, ptr @gpus_len, align 2
  %73 = zext i16 %72 to i64
  %74 = icmp samesign ult i64 %indvars.iv.next58, %73
  br i1 %74, label %.lr.ph45, label %.loopexit.loopexit, !llvm.loop !20

.loopexit.loopexit:                               ; preds = %70
  %.pre60 = load i32, ptr @dataset_id, align 4
  br label %.loopexit

.loopexit:                                        ; preds = %49, %.loopexit.loopexit, %59
  %.026.lcssa65 = phi i64 [ %61, %.loopexit.loopexit ], [ %61, %59 ], [ %7, %49 ]
  %75 = phi i32 [ %.pre60, %.loopexit.loopexit ], [ %50, %59 ], [ %50, %49 ]
  %76 = call i32 @acct_gather_profile_g_add_sample_data(i32 noundef %75, ptr noundef nonnull %3, i64 noundef %.026.lcssa65) #11
  br label %77

77:                                               ; preds = %47, %_running_profile.exit, %.loopexit
  ret void
}